; ModuleID = 'bench/linux/original/kaslr.ll'
source_filename = "bench/linux/original/kaslr.ll"
target datalayout = "e-m:e-p270:32:32-p271:32:32-p272:64:64-i64:64-i128:128-f80:128-n8:16:32:64-S128"
target triple = "x86_64-unknown-linux-gnu"

%struct.cpuinfo_x86 = type { i8, i8, i8, i8, i32, [5 x i32], i8, i8, i8, i32, i32, %union.anon, [16 x i8], [64 x i8], %struct.cpuinfo_topology, i32, i32, i32, i32, i32, i32, i64, i64, i16, i16, i16, i16, i8, i32, i8, i8 }
%union.anon = type { i64, [88 x i8] }
%struct.cpuinfo_topology = type { i32, i32, i32, i32, i32, i32, i32, i32, i32, i32 }

@.str = private unnamed_addr constant [3 x i8] c"%s\00", align 1
@.str.1 = private unnamed_addr constant [13 x i8] c" KASLR using\00", align 1
@boot_cpu_data = external dso_local global %struct.cpuinfo_x86, align 8
@.str.2 = private unnamed_addr constant [8 x i8] c" RDRAND\00", align 1
@.str.3 = private unnamed_addr constant [7 x i8] c" RDTSC\00", align 1
@.str.4 = private unnamed_addr constant [7 x i8] c" i8254\00", align 1
@.str.5 = private unnamed_addr constant [5 x i8] c"...\0A\00", align 1
@_text = external dso_local global [0 x i8], align 1

; Function Attrs: fn_ret_thunk_extern nounwind null_pointer_is_valid
define dso_local i64 @kaslr_get_random_long(ptr noundef %0) local_unnamed_addr #0 align 16 {
  %2 = icmp eq ptr %0, null
  br i1 %2, label %3, label %.thread

3:                                                ; preds = %1
  %4 = load volatile i64, ptr getelementptr inbounds (%struct.cpuinfo_x86, ptr @boot_cpu_data, i64 0, i32 11, i32 1, i64 8), align 8
  %5 = and i64 %4, 1073741824
  %6 = icmp eq i64 %5, 0
  br i1 %6, label %.thread13, label %.preheader

.thread:                                          ; preds = %1
  tail call void (ptr, ...) @early_printk(ptr noundef nonnull @.str, ptr noundef nonnull %0) #3
  tail call void (ptr, ...) @early_printk(ptr noundef nonnull @.str, ptr noundef nonnull @.str.1) #3
  %7 = load volatile i64, ptr getelementptr inbounds (%struct.cpuinfo_x86, ptr @boot_cpu_data, i64 0, i32 11, i32 1, i64 8), align 8
  %8 = and i64 %7, 1073741824
  %9 = icmp eq i64 %8, 0
  br i1 %9, label %.thread2, label %10

10:                                               ; preds = %.thread
  tail call void (ptr, ...) @early_printk(ptr noundef nonnull @.str, ptr noundef nonnull @.str.2) #3
  br label %.preheader

.preheader:                                       ; preds = %3, %10
  br label %11

11:                                               ; preds = %.preheader, %11
  %12 = phi i32 [ %17, %11 ], [ 10, %.preheader ]
  %13 = tail call { i8, i64 } asm sideeffect "rdrand $1\0A\09/* output condition code c*/\0A", "={@ccc},=r,~{dirflag},~{fpsr},~{flags}"() #3, !srcloc !5
  %14 = extractvalue { i8, i64 } %13, 0
  %15 = icmp ult i8 %14, 2
  tail call void @llvm.assume(i1 %15)
  %16 = icmp ne i8 %14, 0
  %17 = add nsw i32 %12, -1
  %18 = icmp eq i32 %17, 0
  %19 = select i1 %16, i1 true, i1 %18
  br i1 %19, label %20, label %11, !llvm.loop !6

20:                                               ; preds = %11
  %21 = extractvalue { i8, i64 } %13, 1
  %22 = xor i64 %21, sub (i64 ptrtoint (ptr @_text to i64), i64 -2130706432)
  %23 = select i1 %16, i64 %22, i64 sub (i64 ptrtoint (ptr @_text to i64), i64 -2130706432)
  %24 = load volatile i64, ptr getelementptr inbounds (%struct.cpuinfo_x86, ptr @boot_cpu_data, i64 0, i32 11), align 8
  %25 = and i64 %24, 16
  %26 = icmp eq i64 %25, 0
  br i1 %26, label %42, label %33

.thread13:                                        ; preds = %3
  %27 = load volatile i64, ptr getelementptr inbounds (%struct.cpuinfo_x86, ptr @boot_cpu_data, i64 0, i32 11), align 8
  %28 = and i64 %27, 16
  %29 = icmp eq i64 %28, 0
  br i1 %29, label %.thread16, label %.thread5

.thread2:                                         ; preds = %.thread
  %30 = load volatile i64, ptr getelementptr inbounds (%struct.cpuinfo_x86, ptr @boot_cpu_data, i64 0, i32 11), align 8
  %31 = and i64 %30, 16
  %32 = icmp eq i64 %31, 0
  br i1 %32, label %.thread6, label %.thread3

33:                                               ; preds = %20
  br i1 %2, label %.thread5, label %.thread3

.thread3:                                         ; preds = %.thread2, %33
  %34 = phi i64 [ %23, %33 ], [ sub (i64 ptrtoint (ptr @_text to i64), i64 -2130706432), %.thread2 ]
  tail call void (ptr, ...) @early_printk(ptr noundef nonnull @.str, ptr noundef nonnull @.str.3) #3
  br label %.thread5

.thread5:                                         ; preds = %.thread13, %33, %.thread3
  %35 = phi i64 [ %34, %.thread3 ], [ %23, %33 ], [ sub (i64 ptrtoint (ptr @_text to i64), i64 -2130706432), %.thread13 ]
  %36 = tail call { i64, i64 } asm sideeffect "rdtsc", "={ax},={dx},~{dirflag},~{fpsr},~{flags}"() #3, !srcloc !9
  %37 = extractvalue { i64, i64 } %36, 0
  %38 = extractvalue { i64, i64 } %36, 1
  %39 = shl i64 %38, 32
  %40 = or i64 %39, %37
  %41 = xor i64 %40, %35
  br label %58

42:                                               ; preds = %20
  br i1 %16, label %58, label %43

43:                                               ; preds = %42
  br i1 %2, label %.thread16, label %.thread6

.thread6:                                         ; preds = %.thread2, %43
  %44 = phi i64 [ %23, %43 ], [ sub (i64 ptrtoint (ptr @_text to i64), i64 -2130706432), %.thread2 ]
  tail call void (ptr, ...) @early_printk(ptr noundef nonnull @.str, ptr noundef nonnull @.str.4) #3
  br label %.thread16

.thread16:                                        ; preds = %.thread13, %.thread6, %43
  %45 = phi i64 [ %44, %.thread6 ], [ %23, %43 ], [ sub (i64 ptrtoint (ptr @_text to i64), i64 -2130706432), %.thread13 ]
  br label %46

46:                                               ; preds = %46, %.thread16
  tail call void asm sideeffect "outb ${0:b}, ${1:w}", "{ax},N{dx},~{dirflag},~{fpsr},~{flags}"(i8 -62, i16 67) #3, !srcloc !10
  %47 = tail call i8 asm sideeffect "inb ${1:w}, ${0:b}", "={ax},N{dx},~{dirflag},~{fpsr},~{flags}"(i16 64) #3, !srcloc !11
  %48 = tail call i8 asm sideeffect "inb ${1:w}, ${0:b}", "={ax},N{dx},~{dirflag},~{fpsr},~{flags}"(i16 64) #3, !srcloc !11
  %49 = tail call i8 asm sideeffect "inb ${1:w}, ${0:b}", "={ax},N{dx},~{dirflag},~{fpsr},~{flags}"(i16 64) #3, !srcloc !11
  %50 = and i8 %47, 64
  %51 = icmp eq i8 %50, 0
  br i1 %51, label %52, label %46, !llvm.loop !12

52:                                               ; preds = %46
  %53 = zext i8 %49 to i64
  %54 = shl nuw nsw i64 %53, 8
  %55 = zext i8 %48 to i64
  %56 = or disjoint i64 %54, %55
  %57 = xor i64 %56, %45
  br label %58

58:                                               ; preds = %.thread5, %52, %42
  %59 = phi i64 [ %57, %52 ], [ %23, %42 ], [ %41, %.thread5 ]
  %60 = tail call { i64, i64 } asm " mulq $3", "={ax},={dx},{ax},rm,~{dirflag},~{fpsr},~{flags}"(i64 %59, i64 6728387515348454867) #4, !srcloc !13
  br i1 %2, label %62, label %61

61:                                               ; preds = %58
  tail call void (ptr, ...) @early_printk(ptr noundef nonnull @.str, ptr noundef nonnull @.str.5) #3
  br label %62

62:                                               ; preds = %61, %58
  %63 = extractvalue { i64, i64 } %60, 1
  %64 = extractvalue { i64, i64 } %60, 0
  %65 = add i64 %64, %63
  ret i64 %65
}

; Function Attrs: null_pointer_is_valid
declare dso_local void @early_printk(ptr noundef, ...) local_unnamed_addr #1

; Function Attrs: mustprogress nocallback nofree nosync nounwind willreturn memory(inaccessiblemem: write)
declare void @llvm.assume(i1 noundef) #2


!llvm.module.flags = !{!0, !1, !2, !3, !4}

!0 = !{i32 1, !"wchar_size", i32 2}
!1 = !{i32 8, !"cf-protection-branch", i32 1}
!2 = !{i32 4, !"function_return_thunk_extern", i32 1}
!3 = !{i32 4, !"indirect_branch_cs_prefix", i32 1}
!4 = !{i32 4, !"SkipRaxSetup", i32 1}
!5 = !{i64 1389931, i64 2149292320}
!6 = distinct !{!6, !7, !8}
!7 = !{!"llvm.loop.mustprogress"}
!8 = !{!"llvm.loop.unroll.disable"}
!9 = !{i64 127503}
!10 = !{i64 2149320440}
!11 = !{i64 2149320636}
!12 = distinct !{!12, !7, !8}
!13 = !{i64 2149357137}
